target datalayout = "e-m:e-p270:32:32-p271:32:32-p272:64:64-i64:64-i128:128-f80:128-n8:16:32:64-S128"
target triple = "x86_64-pc-linux-gnu"

%struct.pmix_output_desc_t = type { i8, i8, i32, i8, i32, ptr, ptr, i32, ptr, i32, i8, i8, i8, i8, ptr, i32, i32 }
%struct.hwloc_obj = type { i32, ptr, i32, ptr, i64, ptr, i32, i32, ptr, ptr, ptr, i32, ptr, ptr, i32, ptr, ptr, ptr, i32, i32, ptr, i32, ptr, i32, ptr, ptr, ptr, ptr, ptr, ptr, i32, ptr, i64 }
%struct.hwloc_cache_attr_s = type { i64, i32, i32, i32, i32 }

@prte_hwloc_base_output = external global i32, align 4
@pmix_output_info = external global [0 x %struct.pmix_output_desc_t], align 8
@.str.6 = private unnamed_addr constant [24 x i8] c"hwloc:base:get_topology\00", align 1
@prte_hwloc_topology = external global ptr, align 8
@prte_hwloc_base_topo_file = external global ptr, align 8
@.str.7 = private unnamed_addr constant [32 x i8] c"hwloc:base discovering topology\00", align 1
@.str.8 = private unnamed_addr constant [37 x i8] c"PRTE ERROR: %s in file %s at line %d\00", align 1
@.str.9 = private unnamed_addr constant [24 x i8] c"hwloc/hwloc_base_util.c\00", align 1
@.str.10 = private unnamed_addr constant [41 x i8] c"hwloc:base loading topology from file %s\00", align 1
@prte_hwloc_synthetic_topo = external global i8, align 1
@.str.75 = private unnamed_addr constant [3 x i8] c"gl\00", align 1
@prte_cache_line_size = external global i32, align 4

; Function Attrs: inlinehint nounwind willreturn memory(read) uwtable
define internal ptr @hwloc_get_obj_by_type(ptr noundef %0, i32 noundef %1, i32 noundef %2) #2 {
  %4 = alloca ptr, align 8
  %5 = alloca ptr, align 8
  %6 = alloca i32, align 4
  %7 = alloca i32, align 4
  %8 = alloca i32, align 4
  %9 = alloca i32, align 4
  store ptr %0, ptr %5, align 8, !tbaa !3
  store i32 %1, ptr %6, align 4, !tbaa !19
  store i32 %2, ptr %7, align 4, !tbaa !19
  call void @llvm.lifetime.start.p0(i64 4, ptr %8) #10
  %10 = load ptr, ptr %5, align 8, !tbaa !3
  %11 = load i32, ptr %6, align 4, !tbaa !19
  %12 = call i32 @hwloc_get_type_depth(ptr noundef %10, i32 noundef %11)
  store i32 %12, ptr %8, align 4, !tbaa !19
  %13 = load i32, ptr %8, align 4, !tbaa !19
  %14 = icmp eq i32 %13, -1
  br i1 %14, label %15, label %16

15:                                               ; preds = %3
  store ptr null, ptr %4, align 8
  store i32 1, ptr %9, align 4
  br label %25

16:                                               ; preds = %3
  %17 = load i32, ptr %8, align 4, !tbaa !19
  %18 = icmp eq i32 %17, -2
  br i1 %18, label %19, label %20

19:                                               ; preds = %16
  store ptr null, ptr %4, align 8
  store i32 1, ptr %9, align 4
  br label %25

20:                                               ; preds = %16
  %21 = load ptr, ptr %5, align 8, !tbaa !3
  %22 = load i32, ptr %8, align 4, !tbaa !19
  %23 = load i32, ptr %7, align 4, !tbaa !19
  %24 = call ptr @hwloc_get_obj_by_depth(ptr noundef %21, i32 noundef %22, i32 noundef %23) #11
  store ptr %24, ptr %4, align 8
  store i32 1, ptr %9, align 4
  br label %25

25:                                               ; preds = %20, %19, %15
  call void @llvm.lifetime.end.p0(i64 4, ptr %8) #10
  %26 = load ptr, ptr %4, align 8
  ret ptr %26
}

; Function Attrs: nounwind uwtable
define internal void @fill_cache_line_size() #0 {
  %1 = alloca i8, align 1
  %2 = alloca i32, align 4
  %3 = alloca i32, align 4
  %4 = alloca i32, align 4
  %5 = alloca i32, align 4
  %6 = alloca ptr, align 8
  call void @llvm.lifetime.start.p0(i64 1, ptr %1) #10
  store i8 0, ptr %1, align 1, !tbaa !20
  call void @llvm.lifetime.start.p0(i64 4, ptr %2) #10
  store i32 0, ptr %2, align 4, !tbaa !19
  call void @llvm.lifetime.start.p0(i64 4, ptr %3) #10
  store i32 2, ptr %3, align 4, !tbaa !19
  call void @llvm.lifetime.start.p0(i64 4, ptr %4) #10
  store i32 0, ptr %4, align 4, !tbaa !19
  call void @llvm.lifetime.start.p0(i64 4, ptr %5) #10
  store i32 5, ptr %5, align 4, !tbaa !19
  call void @llvm.lifetime.start.p0(i64 8, ptr %6) #10
  store i32 4096, ptr %2, align 4, !tbaa !19
  br label %7

7:                                                ; preds = %58, %0
  %8 = load i32, ptr %3, align 4, !tbaa !19
  %9 = icmp ugt i32 %8, 0
  br i1 %9, label %10, label %14

10:                                               ; preds = %7
  %11 = load i8, ptr %1, align 1, !tbaa !20, !range !22, !noundef !23
  %12 = trunc i8 %11 to i1
  %13 = xor i1 %12, true
  br label %14

14:                                               ; preds = %10, %7
  %15 = phi i1 [ false, %7 ], [ %13, %10 ]
  br i1 %15, label %16, label %59

16:                                               ; preds = %14
  store i32 0, ptr %4, align 4, !tbaa !19
  br label %17

17:                                               ; preds = %55, %16
  br label %18

18:                                               ; preds = %17
  %19 = load ptr, ptr @prte_hwloc_topology, align 8, !tbaa !3
  %20 = load i32, ptr %5, align 4, !tbaa !19
  %21 = load i32, ptr %4, align 4, !tbaa !19
  %22 = call ptr @hwloc_get_obj_by_type(ptr noundef %19, i32 noundef %20, i32 noundef %21) #11
  store ptr %22, ptr %6, align 8, !tbaa !8
  %23 = load ptr, ptr %6, align 8, !tbaa !8
  %24 = icmp eq ptr null, %23
  br i1 %24, label %25, label %28

25:                                               ; preds = %18
  %26 = load i32, ptr %3, align 4, !tbaa !19
  %27 = add i32 %26, -1
  store i32 %27, ptr %3, align 4, !tbaa !19
  store i32 4, ptr %5, align 4, !tbaa !19
  br label %58

28:                                               ; preds = %18
  %29 = load ptr, ptr %6, align 8, !tbaa !8
  %30 = getelementptr inbounds nuw %struct.hwloc_obj, ptr %29, i32 0, i32 5
  %31 = load ptr, ptr %30, align 8, !tbaa !88
  %32 = icmp ne ptr null, %31
  br i1 %32, label %33, label %54

33:                                               ; preds = %28
  %34 = load ptr, ptr %6, align 8, !tbaa !8
  %35 = getelementptr inbounds nuw %struct.hwloc_obj, ptr %34, i32 0, i32 5
  %36 = load ptr, ptr %35, align 8, !tbaa !88
  %37 = getelementptr inbounds nuw %struct.hwloc_cache_attr_s, ptr %36, i32 0, i32 2
  %38 = load i32, ptr %37, align 4, !tbaa !89
  %39 = icmp ugt i32 %38, 0
  br i1 %39, label %40, label %54

40:                                               ; preds = %33
  %41 = load i32, ptr %2, align 4, !tbaa !19
  %42 = load ptr, ptr %6, align 8, !tbaa !8
  %43 = getelementptr inbounds nuw %struct.hwloc_obj, ptr %42, i32 0, i32 5
  %44 = load ptr, ptr %43, align 8, !tbaa !88
  %45 = getelementptr inbounds nuw %struct.hwloc_cache_attr_s, ptr %44, i32 0, i32 2
  %46 = load i32, ptr %45, align 4, !tbaa !89
  %47 = icmp ugt i32 %41, %46
  br i1 %47, label %48, label %54

48:                                               ; preds = %40
  %49 = load ptr, ptr %6, align 8, !tbaa !8
  %50 = getelementptr inbounds nuw %struct.hwloc_obj, ptr %49, i32 0, i32 5
  %51 = load ptr, ptr %50, align 8, !tbaa !88
  %52 = getelementptr inbounds nuw %struct.hwloc_cache_attr_s, ptr %51, i32 0, i32 2
  %53 = load i32, ptr %52, align 4, !tbaa !89
  store i32 %53, ptr %2, align 4, !tbaa !19
  store i8 1, ptr %1, align 1, !tbaa !20
  br label %54

54:                                               ; preds = %48, %40, %33, %28
  br label %55

55:                                               ; preds = %54
  %56 = load i32, ptr %4, align 4, !tbaa !19
  %57 = add i32 %56, 1
  store i32 %57, ptr %4, align 4, !tbaa !19
  br label %17

58:                                               ; preds = %25
  br label %7, !llvm.loop !90

59:                                               ; preds = %14
  %60 = load i8, ptr %1, align 1, !tbaa !20, !range !22, !noundef !23
  %61 = trunc i8 %60 to i1
  br i1 %61, label %62, label %64

62:                                               ; preds = %59
  %63 = load i32, ptr %2, align 4, !tbaa !19
  store i32 %63, ptr @prte_cache_line_size, align 4, !tbaa !19
  br label %64

64:                                               ; preds = %62, %59
  call void @llvm.lifetime.end.p0(i64 8, ptr %6) #10
  call void @llvm.lifetime.end.p0(i64 4, ptr %5) #10
  call void @llvm.lifetime.end.p0(i64 4, ptr %4) #10
  call void @llvm.lifetime.end.p0(i64 4, ptr %3) #10
  call void @llvm.lifetime.end.p0(i64 4, ptr %2) #10
  call void @llvm.lifetime.end.p0(i64 1, ptr %1) #10
  ret void
}

; Function Attrs: nounwind uwtable
define i32 @prte_hwloc_base_topology_set_flags(ptr noundef %0, i64 noundef %1, i1 noundef zeroext %2) #0 {
  %4 = alloca i32, align 4
  %5 = alloca ptr, align 8
  %6 = alloca i64, align 8
  %7 = alloca i8, align 1
  %8 = alloca i32, align 4
  %9 = alloca i32, align 4
  store ptr %0, ptr %5, align 8, !tbaa !3
  store i64 %1, ptr %6, align 8, !tbaa !66
  %10 = zext i1 %2 to i8
  store i8 %10, ptr %7, align 1, !tbaa !20
  %11 = load i8, ptr %7, align 1, !tbaa !20, !range !22, !noundef !23
  %12 = trunc i8 %11 to i1
  br i1 %12, label %13, label %24

13:                                               ; preds = %3
  call void @llvm.lifetime.start.p0(i64 4, ptr %8) #10
  %14 = load ptr, ptr %5, align 8, !tbaa !3
  %15 = call i32 @hwloc_topology_set_io_types_filter(ptr noundef %14, i32 noundef 3)
  store i32 %15, ptr %8, align 4, !tbaa !19
  %16 = load i32, ptr %8, align 4, !tbaa !19
  %17 = icmp ne i32 0, %16
  br i1 %17, label %18, label %20

18:                                               ; preds = %13
  %19 = load i32, ptr %8, align 4, !tbaa !19
  store i32 %19, ptr %4, align 4
  store i32 1, ptr %9, align 4
  br label %21

20:                                               ; preds = %13
  store i32 0, ptr %9, align 4
  br label %21

21:                                               ; preds = %20, %18
  call void @llvm.lifetime.end.p0(i64 4, ptr %8) #10
  %22 = load i32, ptr %9, align 4
  switch i32 %22, label %32 [
    i32 0, label %23
    i32 1, label %30
  ]

23:                                               ; preds = %21
  br label %24

24:                                               ; preds = %23, %3
  %25 = load ptr, ptr %5, align 8, !tbaa !3
  %26 = call i32 @hwloc_topology_set_components(ptr noundef %25, i64 noundef 1, ptr noundef @.str.75)
  %27 = load ptr, ptr %5, align 8, !tbaa !3
  %28 = load i64, ptr %6, align 8, !tbaa !66
  %29 = call i32 @hwloc_topology_set_flags(ptr noundef %27, i64 noundef %28)
  store i32 %29, ptr %4, align 4
  br label %30

30:                                               ; preds = %24, %21
  %31 = load i32, ptr %4, align 4
  ret i32 %31

32:                                               ; preds = %21
  unreachable
}

; Function Attrs: nounwind uwtable
define i32 @prte_hwloc_base_get_topology() #0 {
  %1 = alloca i32, align 4
  %2 = alloca i32, align 4
  %3 = alloca i32, align 4
  call void @llvm.lifetime.start.p0(i64 4, ptr %2) #10
  %4 = load i32, ptr @prte_hwloc_base_output, align 4, !tbaa !19
  %5 = icmp sge i32 %4, 0
  br i1 %5, label %6, label %18

6:                                                ; preds = %0
  %7 = load i32, ptr @prte_hwloc_base_output, align 4, !tbaa !19
  %8 = icmp slt i32 %7, 64
  br i1 %8, label %9, label %18

9:                                                ; preds = %6
  %10 = load i32, ptr @prte_hwloc_base_output, align 4, !tbaa !19
  %11 = sext i32 %10 to i64
  %12 = getelementptr inbounds [0 x %struct.pmix_output_desc_t], ptr @pmix_output_info, i64 0, i64 %11
  %13 = getelementptr inbounds nuw %struct.pmix_output_desc_t, ptr %12, i32 0, i32 2
  %14 = load i32, ptr %13, align 4, !tbaa !24
  %15 = icmp sge i32 %14, 2
  br i1 %15, label %16, label %18

16:                                               ; preds = %9
  %17 = load i32, ptr @prte_hwloc_base_output, align 4, !tbaa !19
  call void (i32, ptr, ...) @pmix_output(i32 noundef %17, ptr noundef @.str.6)
  br label %18

18:                                               ; preds = %16, %9, %6, %0
  %19 = load ptr, ptr @prte_hwloc_topology, align 8, !tbaa !3
  %20 = icmp ne ptr null, %19
  br i1 %20, label %21, label %22

21:                                               ; preds = %18
  store i32 0, ptr %1, align 4
  store i32 1, ptr %3, align 4
  br label %82

22:                                               ; preds = %18
  %23 = load ptr, ptr @prte_hwloc_base_topo_file, align 8, !tbaa !26
  %24 = icmp eq ptr null, %23
  br i1 %24, label %25, label %57

25:                                               ; preds = %22
  %26 = load i32, ptr @prte_hwloc_base_output, align 4, !tbaa !19
  %27 = icmp sge i32 %26, 0
  br i1 %27, label %28, label %40

28:                                               ; preds = %25
  %29 = load i32, ptr @prte_hwloc_base_output, align 4, !tbaa !19
  %30 = icmp slt i32 %29, 64
  br i1 %30, label %31, label %40

31:                                               ; preds = %28
  %32 = load i32, ptr @prte_hwloc_base_output, align 4, !tbaa !19
  %33 = sext i32 %32 to i64
  %34 = getelementptr inbounds [0 x %struct.pmix_output_desc_t], ptr @pmix_output_info, i64 0, i64 %33
  %35 = getelementptr inbounds nuw %struct.pmix_output_desc_t, ptr %34, i32 0, i32 2
  %36 = load i32, ptr %35, align 4, !tbaa !24
  %37 = icmp sge i32 %36, 1
  br i1 %37, label %38, label %40

38:                                               ; preds = %31
  %39 = load i32, ptr @prte_hwloc_base_output, align 4, !tbaa !19
  call void (i32, ptr, ...) @pmix_output(i32 noundef %39, ptr noundef @.str.7)
  br label %40

40:                                               ; preds = %38, %31, %28, %25
  %41 = call i32 @hwloc_topology_init(ptr noundef @prte_hwloc_topology)
  %42 = icmp ne i32 0, %41
  br i1 %42, label %51, label %43

43:                                               ; preds = %40
  %44 = load ptr, ptr @prte_hwloc_topology, align 8, !tbaa !3
  %45 = call i32 @prte_hwloc_base_topology_set_flags(ptr noundef %44, i64 noundef 0, i1 noundef zeroext true)
  %46 = icmp ne i32 0, %45
  br i1 %46, label %51, label %47

47:                                               ; preds = %43
  %48 = load ptr, ptr @prte_hwloc_topology, align 8, !tbaa !3
  %49 = call i32 @hwloc_topology_load(ptr noundef %48)
  %50 = icmp ne i32 0, %49
  br i1 %50, label %51, label %56

51:                                               ; preds = %47, %43, %40
  br label %52

52:                                               ; preds = %51
  %53 = call ptr @prte_strerror(i32 noundef -8)
  call void (i32, ptr, ...) @pmix_output(i32 noundef 0, ptr noundef @.str.8, ptr noundef %53, ptr noundef @.str.9, i32 noundef 342)
  br label %54

54:                                               ; preds = %52
  br label %55

55:                                               ; preds = %54
  store i32 -8, ptr %1, align 4
  store i32 1, ptr %3, align 4
  br label %82

56:                                               ; preds = %47
  br label %80

57:                                               ; preds = %22
  %58 = load i32, ptr @prte_hwloc_base_output, align 4, !tbaa !19
  %59 = icmp sge i32 %58, 0
  br i1 %59, label %60, label %73

60:                                               ; preds = %57
  %61 = load i32, ptr @prte_hwloc_base_output, align 4, !tbaa !19
  %62 = icmp slt i32 %61, 64
  br i1 %62, label %63, label %73

63:                                               ; preds = %60
  %64 = load i32, ptr @prte_hwloc_base_output, align 4, !tbaa !19
  %65 = sext i32 %64 to i64
  %66 = getelementptr inbounds [0 x %struct.pmix_output_desc_t], ptr @pmix_output_info, i64 0, i64 %65
  %67 = getelementptr inbounds nuw %struct.pmix_output_desc_t, ptr %66, i32 0, i32 2
  %68 = load i32, ptr %67, align 4, !tbaa !24
  %69 = icmp sge i32 %68, 1
  br i1 %69, label %70, label %73

70:                                               ; preds = %63
  %71 = load i32, ptr @prte_hwloc_base_output, align 4, !tbaa !19
  %72 = load ptr, ptr @prte_hwloc_base_topo_file, align 8, !tbaa !26
  call void (i32, ptr, ...) @pmix_output(i32 noundef %71, ptr noundef @.str.10, ptr noundef %72)
  br label %73

73:                                               ; preds = %70, %63, %60, %57
  %74 = load ptr, ptr @prte_hwloc_base_topo_file, align 8, !tbaa !26
  %75 = call i32 @prte_hwloc_base_set_topology(ptr noundef %74)
  store i32 %75, ptr %2, align 4, !tbaa !19
  %76 = icmp ne i32 0, %75
  br i1 %76, label %77, label %79

77:                                               ; preds = %73
  %78 = load i32, ptr %2, align 4, !tbaa !19
  store i32 %78, ptr %1, align 4
  store i32 1, ptr %3, align 4
  br label %82

79:                                               ; preds = %73
  store i8 1, ptr @prte_hwloc_synthetic_topo, align 1, !tbaa !20
  br label %80

80:                                               ; preds = %79, %56
  call void @fill_cache_line_size()
  %81 = load ptr, ptr @prte_hwloc_topology, align 8, !tbaa !3
  call void @prte_hwloc_base_setup_summary(ptr noundef %81)
  store i32 0, ptr %1, align 4
  store i32 1, ptr %3, align 4
  br label %82

82:                                               ; preds = %80, %77, %55, %21
  call void @llvm.lifetime.end.p0(i64 4, ptr %2) #10
  %83 = load i32, ptr %1, align 4
  ret i32 %83
}