; Function Attrs: nounwind uwtable
define range(i32 -8, 1) i32 @prte_hwloc_base_get_topology() local_unnamed_addr #0 {
  %1 = load i32, ptr @prte_hwloc_base_output, align 4, !tbaa !16
  %or.cond = icmp ult i32 %1, 64
  br i1 %or.cond, label %2, label %8

2:                                                ; preds = %0
  %3 = zext nneg i32 %1 to i64
  %4 = getelementptr inbounds nuw [0 x %struct.pmix_output_desc_t], ptr @pmix_output_info, i64 0, i64 %3, i32 2
  %5 = load i32, ptr %4, align 4, !tbaa !17
  %6 = icmp sgt i32 %5, 1
  br i1 %6, label %7, label %8

7:                                                ; preds = %2
  tail call void (i32, ptr, ...) @pmix_output(i32 noundef %1, ptr noundef nonnull @.str.6) #18
  br label %8

8:                                                ; preds = %7, %2, %0
  %9 = load ptr, ptr @prte_hwloc_topology, align 8, !tbaa !50
  %.not = icmp eq ptr %9, null
  br i1 %.not, label %10, label %67

10:                                               ; preds = %8
  %11 = load ptr, ptr @prte_hwloc_base_topo_file, align 8, !tbaa !20
  %12 = icmp eq ptr %11, null
  %13 = load i32, ptr @prte_hwloc_base_output, align 4, !tbaa !16
  %or.cond3 = icmp ult i32 %13, 64
  br i1 %12, label %14, label %32

14:                                               ; preds = %10
  br i1 %or.cond3, label %15, label %21

15:                                               ; preds = %14
  %16 = zext nneg i32 %13 to i64
  %17 = getelementptr inbounds nuw [0 x %struct.pmix_output_desc_t], ptr @pmix_output_info, i64 0, i64 %16, i32 2
  %18 = load i32, ptr %17, align 4, !tbaa !17
  %19 = icmp sgt i32 %18, 0
  br i1 %19, label %20, label %21

20:                                               ; preds = %15
  tail call void (i32, ptr, ...) @pmix_output(i32 noundef %13, ptr noundef nonnull @.str.7) #18
  br label %21

21:                                               ; preds = %20, %15, %14
  %22 = tail call i32 @hwloc_topology_init(ptr noundef nonnull @prte_hwloc_topology) #18
  %.not13 = icmp eq i32 %22, 0
  br i1 %.not13, label %23, label %prte_hwloc_base_topology_set_flags.exit.thread

23:                                               ; preds = %21
  %24 = load ptr, ptr @prte_hwloc_topology, align 8, !tbaa !50
  %25 = tail call i32 @hwloc_topology_set_io_types_filter(ptr noundef %24, i32 noundef 3) #18
  %.not.not.i = icmp eq i32 %25, 0
  br i1 %.not.not.i, label %prte_hwloc_base_topology_set_flags.exit, label %prte_hwloc_base_topology_set_flags.exit.thread

prte_hwloc_base_topology_set_flags.exit:          ; preds = %23
  %26 = tail call i32 @hwloc_topology_set_components(ptr noundef %24, i64 noundef 1, ptr noundef nonnull @.str.75) #18
  %27 = tail call i32 @hwloc_topology_set_flags(ptr noundef %24, i64 noundef 0) #18
  %.not14 = icmp eq i32 %27, 0
  br i1 %.not14, label %28, label %prte_hwloc_base_topology_set_flags.exit.thread

28:                                               ; preds = %prte_hwloc_base_topology_set_flags.exit
  %29 = load ptr, ptr @prte_hwloc_topology, align 8, !tbaa !50
  %30 = tail call i32 @hwloc_topology_load(ptr noundef %29) #18
  %.not15 = icmp eq i32 %30, 0
  br i1 %.not15, label %.preheader.outer.i.preheader, label %prte_hwloc_base_topology_set_flags.exit.thread

prte_hwloc_base_topology_set_flags.exit.thread:   ; preds = %23, %21, %prte_hwloc_base_topology_set_flags.exit, %28
  %31 = tail call ptr @prte_strerror(i32 noundef -8) #18
  tail call void (i32, ptr, ...) @pmix_output(i32 noundef 0, ptr noundef nonnull @.str.8, ptr noundef %31, ptr noundef nonnull @.str.9, i32 noundef 342) #18
  br label %67

32:                                               ; preds = %10
  br i1 %or.cond3, label %33, label %39

33:                                               ; preds = %32
  %34 = zext nneg i32 %13 to i64
  %35 = getelementptr inbounds nuw [0 x %struct.pmix_output_desc_t], ptr @pmix_output_info, i64 0, i64 %34, i32 2
  %36 = load i32, ptr %35, align 4, !tbaa !17
  %37 = icmp sgt i32 %36, 0
  br i1 %37, label %38, label %39

38:                                               ; preds = %33
  tail call void (i32, ptr, ...) @pmix_output(i32 noundef %13, ptr noundef nonnull @.str.10, ptr noundef nonnull %11) #18
  %.pre = load ptr, ptr @prte_hwloc_base_topo_file, align 8, !tbaa !20
  br label %39

39:                                               ; preds = %38, %33, %32
  %40 = phi ptr [ %.pre, %38 ], [ %11, %33 ], [ %11, %32 ]
  %41 = tail call i32 @prte_hwloc_base_set_topology(ptr noundef %40)
  %.not12 = icmp eq i32 %41, 0
  br i1 %.not12, label %42, label %67

42:                                               ; preds = %39
  store i8 1, ptr @prte_hwloc_synthetic_topo, align 1, !tbaa !49
  br label %.preheader.outer.i.preheader

.preheader.outer.i.preheader:                     ; preds = %28, %42
  br label %.preheader.outer.i

.preheader.outer.i:                               ; preds = %.preheader.outer.i.preheader, %hwloc_get_obj_by_type.exit.thread.i
  %.01335.ph.i = phi i32 [ 4, %hwloc_get_obj_by_type.exit.thread.i ], [ 5, %.preheader.outer.i.preheader ]
  %.01534.ph.i = phi i32 [ %49, %hwloc_get_obj_by_type.exit.thread.i ], [ 2, %.preheader.outer.i.preheader ]
  %.01633.ph.i = phi i32 [ %.117.lcssa.i, %hwloc_get_obj_by_type.exit.thread.i ], [ 4096, %.preheader.outer.i.preheader ]
  br label %.preheader.i

.preheader.i:                                     ; preds = %hwloc_get_obj_by_type.exit.thread.thread.i, %.preheader.outer.i
  %.01335.i = phi i32 [ 4, %hwloc_get_obj_by_type.exit.thread.thread.i ], [ %.01335.ph.i, %.preheader.outer.i ]
  %.01534.i = phi i32 [ %51, %hwloc_get_obj_by_type.exit.thread.thread.i ], [ %.01534.ph.i, %.preheader.outer.i ]
  %43 = load ptr, ptr @prte_hwloc_topology, align 8, !tbaa !50
  %44 = tail call i32 @hwloc_get_type_depth(ptr noundef %43, i32 noundef range(i32 14, 13) %.01335.i) #18
  %switch.i26.i = icmp ugt i32 %44, -3
  br i1 %switch.i26.i, label %hwloc_get_obj_by_type.exit.thread.thread.i, label %hwloc_get_obj_by_type.exit.i

hwloc_get_obj_by_type.exit.i:                     ; preds = %.preheader.i, %60
  %45 = phi i32 [ %63, %60 ], [ %44, %.preheader.i ]
  %46 = phi ptr [ %62, %60 ], [ %43, %.preheader.i ]
  %.129.i = phi i1 [ %.2.i, %60 ], [ false, %.preheader.i ]
  %.01428.i = phi i32 [ %61, %60 ], [ 0, %.preheader.i ]
  %.11727.i = phi i32 [ %.218.i, %60 ], [ %.01633.ph.i, %.preheader.i ]
  %47 = tail call ptr @hwloc_get_obj_by_depth(ptr noundef %46, i32 noundef %45, i32 noundef %.01428.i) #19
  %48 = icmp eq ptr %47, null
  br i1 %48, label %hwloc_get_obj_by_type.exit.thread.i, label %53

hwloc_get_obj_by_type.exit.thread.i:              ; preds = %60, %hwloc_get_obj_by_type.exit.i
  %.117.lcssa.i = phi i32 [ %.11727.i, %hwloc_get_obj_by_type.exit.i ], [ %.218.i, %60 ]
  %.1.lcssa.i = phi i1 [ %.129.i, %hwloc_get_obj_by_type.exit.i ], [ %.2.i, %60 ]
  %49 = add nsw i32 %.01534.i, -1
  %50 = icmp eq i32 %49, 0
  %.not22.i = select i1 %50, i1 true, i1 %.1.lcssa.i
  br i1 %.not22.i, label %64, label %.preheader.outer.i, !llvm.loop !52

hwloc_get_obj_by_type.exit.thread.thread.i:       ; preds = %.preheader.i
  %51 = add nsw i32 %.01534.i, -1
  %52 = icmp eq i32 %51, 0
  br i1 %52, label %fill_cache_line_size.exit, label %.preheader.i, !llvm.loop !52

53:                                               ; preds = %hwloc_get_obj_by_type.exit.i
  %54 = getelementptr inbounds nuw i8, ptr %47, i64 40
  %55 = load ptr, ptr %54, align 8, !tbaa !53
  %.not.i = icmp eq ptr %55, null
  br i1 %.not.i, label %60, label %56

56:                                               ; preds = %53
  %57 = getelementptr inbounds nuw i8, ptr %55, i64 12
  %58 = load i32, ptr %57, align 4, !tbaa !54
  %.not23.i = icmp ne i32 %58, 0
  %59 = icmp ugt i32 %.11727.i, %58
  %or.cond.i = select i1 %.not23.i, i1 %59, i1 false
  %spec.select.i = select i1 %or.cond.i, i32 %58, i32 %.11727.i
  %spec.select24.i = select i1 %or.cond.i, i1 true, i1 %.129.i
  br label %60

60:                                               ; preds = %56, %53
  %.218.i = phi i32 [ %.11727.i, %53 ], [ %spec.select.i, %56 ]
  %.2.i = phi i1 [ %.129.i, %53 ], [ %spec.select24.i, %56 ]
  %61 = add i32 %.01428.i, 1
  %62 = load ptr, ptr @prte_hwloc_topology, align 8, !tbaa !50
  %63 = tail call i32 @hwloc_get_type_depth(ptr noundef %62, i32 noundef range(i32 14, 13) %.01335.i) #18
  %switch.i.i = icmp ugt i32 %63, -3
  br i1 %switch.i.i, label %hwloc_get_obj_by_type.exit.thread.i, label %hwloc_get_obj_by_type.exit.i

64:                                               ; preds = %hwloc_get_obj_by_type.exit.thread.i
  br i1 %.1.lcssa.i, label %65, label %fill_cache_line_size.exit

65:                                               ; preds = %64
  store i32 %.117.lcssa.i, ptr @prte_cache_line_size, align 4, !tbaa !16
  br label %fill_cache_line_size.exit

fill_cache_line_size.exit:                        ; preds = %hwloc_get_obj_by_type.exit.thread.thread.i, %64, %65
  %66 = load ptr, ptr @prte_hwloc_topology, align 8, !tbaa !50
  tail call void @prte_hwloc_base_setup_summary(ptr noundef %66)
  br label %67

67:                                               ; preds = %39, %8, %fill_cache_line_size.exit, %prte_hwloc_base_topology_set_flags.exit.thread
  %.0 = phi i32 [ -8, %prte_hwloc_base_topology_set_flags.exit.thread ], [ 0, %fill_cache_line_size.exit ], [ 0, %8 ], [ %41, %39 ]
  ret i32 %.0
}